target datalayout = "e-m:e-p270:32:32-p271:32:32-p272:64:64-i64:64-i128:128-f80:128-n8:16:32:64-S128"
target triple = "x86_64-pc-linux-gnu"

%struct.cpu_set_t = type { [16 x i64] }

@get_num_procs.nums = internal global i32 0, align 4

; Function Attrs: nounwind uwtable
define i32 @get_num_procs() #0 {
  %1 = alloca i32, align 4
  %2 = alloca i32, align 4
  %3 = alloca %struct.cpu_set_t, align 8
  %4 = alloca ptr, align 8
  %5 = alloca i64, align 8
  %6 = alloca i32, align 4
  call void @llvm.lifetime.start.p0(i64 4, ptr %2) #9
  call void @llvm.lifetime.start.p0(i64 128, ptr %3) #9
  call void @llvm.lifetime.start.p0(i64 8, ptr %4) #9
  call void @llvm.lifetime.start.p0(i64 8, ptr %5) #9
  %7 = load i32, ptr @get_num_procs.nums, align 4, !tbaa !3
  %8 = icmp ne i32 %7, 0
  br i1 %8, label %12, label %9

9:                                                ; preds = %0
  %10 = call i64 @sysconf(i32 noundef 83) #9
  %11 = trunc i64 %10 to i32
  store i32 %11, ptr @get_num_procs.nums, align 4, !tbaa !3
  br label %12

12:                                               ; preds = %9, %0
  %13 = load i32, ptr @get_num_procs.nums, align 4, !tbaa !3
  %14 = icmp sge i32 %13, 1024
  br i1 %14, label %15, label %71

15:                                               ; preds = %12
  %16 = load i32, ptr @get_num_procs.nums, align 4, !tbaa !3
  %17 = sext i32 %16 to i64
  %18 = call ptr @__sched_cpualloc(i64 noundef %17) #9
  store ptr %18, ptr %4, align 8, !tbaa !7
  %19 = load ptr, ptr %4, align 8, !tbaa !7
  %20 = icmp eq ptr %19, null
  br i1 %20, label %21, label %29

21:                                               ; preds = %15
  %22 = load i32, ptr @get_num_procs.nums, align 4, !tbaa !3
  %23 = icmp sgt i32 %22, 0
  br i1 %23, label %24, label %26

24:                                               ; preds = %21
  %25 = load i32, ptr @get_num_procs.nums, align 4, !tbaa !3
  br label %27

26:                                               ; preds = %21
  br label %27

27:                                               ; preds = %26, %24
  %28 = phi i32 [ %25, %24 ], [ 2, %26 ]
  store i32 %28, ptr %1, align 4
  store i32 1, ptr %6, align 4
  br label %101

29:                                               ; preds = %15
  %30 = load i32, ptr @get_num_procs.nums, align 4, !tbaa !3
  %31 = sext i32 %30 to i64
  %32 = add i64 %31, 64
  %33 = sub i64 %32, 1
  %34 = udiv i64 %33, 64
  %35 = mul i64 %34, 8
  store i64 %35, ptr %5, align 8, !tbaa !9
  %36 = load i64, ptr %5, align 8, !tbaa !9
  %37 = load ptr, ptr %4, align 8, !tbaa !7
  %38 = call i32 @sched_getaffinity(i32 noundef 0, i64 noundef %36, ptr noundef %37) #9
  store i32 %38, ptr %2, align 4, !tbaa !3
  %39 = load i32, ptr %2, align 4, !tbaa !3
  %40 = icmp ne i32 %39, 0
  br i1 %40, label %41, label %50

41:                                               ; preds = %29
  %42 = load ptr, ptr %4, align 8, !tbaa !7
  call void @__sched_cpufree(ptr noundef %42) #9
  %43 = load i32, ptr @get_num_procs.nums, align 4, !tbaa !3
  %44 = icmp sgt i32 %43, 0
  br i1 %44, label %45, label %47

45:                                               ; preds = %41
  %46 = load i32, ptr @get_num_procs.nums, align 4, !tbaa !3
  br label %48

47:                                               ; preds = %41
  br label %48

48:                                               ; preds = %47, %45
  %49 = phi i32 [ %46, %45 ], [ 2, %47 ]
  store i32 %49, ptr %1, align 4
  store i32 1, ptr %6, align 4
  br label %101

50:                                               ; preds = %29
  %51 = load i64, ptr %5, align 8, !tbaa !9
  %52 = load ptr, ptr %4, align 8, !tbaa !7
  %53 = call i32 @__sched_cpucount(i64 noundef %51, ptr noundef %52) #9
  store i32 %53, ptr %2, align 4, !tbaa !3
  %54 = load i32, ptr %2, align 4, !tbaa !3
  %55 = icmp sgt i32 %54, 0
  br i1 %55, label %56, label %62

56:                                               ; preds = %50
  %57 = load i32, ptr %2, align 4, !tbaa !3
  %58 = load i32, ptr @get_num_procs.nums, align 4, !tbaa !3
  %59 = icmp slt i32 %57, %58
  br i1 %59, label %60, label %62

60:                                               ; preds = %56
  %61 = load i32, ptr %2, align 4, !tbaa !3
  store i32 %61, ptr @get_num_procs.nums, align 4, !tbaa !3
  br label %62

62:                                               ; preds = %60, %56, %50
  %63 = load ptr, ptr %4, align 8, !tbaa !7
  call void @__sched_cpufree(ptr noundef %63) #9
  %64 = load i32, ptr @get_num_procs.nums, align 4, !tbaa !3
  %65 = icmp sgt i32 %64, 0
  br i1 %65, label %66, label %68

66:                                               ; preds = %62
  %67 = load i32, ptr @get_num_procs.nums, align 4, !tbaa !3
  br label %69

68:                                               ; preds = %62
  br label %69

69:                                               ; preds = %68, %66
  %70 = phi i32 [ %67, %66 ], [ 2, %68 ]
  store i32 %70, ptr %1, align 4
  store i32 1, ptr %6, align 4
  br label %101

71:                                               ; preds = %12
  %72 = call i32 @sched_getaffinity(i32 noundef 0, i64 noundef 128, ptr noundef %3) #9
  store i32 %72, ptr %2, align 4, !tbaa !3
  %73 = load i32, ptr %2, align 4, !tbaa !3
  %74 = icmp ne i32 %73, 0
  br i1 %74, label %75, label %83

75:                                               ; preds = %71
  %76 = load i32, ptr @get_num_procs.nums, align 4, !tbaa !3
  %77 = icmp sgt i32 %76, 0
  br i1 %77, label %78, label %80

78:                                               ; preds = %75
  %79 = load i32, ptr @get_num_procs.nums, align 4, !tbaa !3
  br label %81

80:                                               ; preds = %75
  br label %81

81:                                               ; preds = %80, %78
  %82 = phi i32 [ %79, %78 ], [ 2, %80 ]
  store i32 %82, ptr %1, align 4
  store i32 1, ptr %6, align 4
  br label %101

83:                                               ; preds = %71
  %84 = call i32 @__sched_cpucount(i64 noundef 128, ptr noundef %3) #9
  store i32 %84, ptr %2, align 4, !tbaa !3
  %85 = load i32, ptr %2, align 4, !tbaa !3
  %86 = icmp sgt i32 %85, 0
  br i1 %86, label %87, label %93

87:                                               ; preds = %83
  %88 = load i32, ptr %2, align 4, !tbaa !3
  %89 = load i32, ptr @get_num_procs.nums, align 4, !tbaa !3
  %90 = icmp slt i32 %88, %89
  br i1 %90, label %91, label %93

91:                                               ; preds = %87
  %92 = load i32, ptr %2, align 4, !tbaa !3
  store i32 %92, ptr @get_num_procs.nums, align 4, !tbaa !3
  br label %93

93:                                               ; preds = %91, %87, %83
  %94 = load i32, ptr @get_num_procs.nums, align 4, !tbaa !3
  %95 = icmp sgt i32 %94, 0
  br i1 %95, label %96, label %98

96:                                               ; preds = %93
  %97 = load i32, ptr @get_num_procs.nums, align 4, !tbaa !3
  br label %99

98:                                               ; preds = %93
  br label %99

99:                                               ; preds = %98, %96
  %100 = phi i32 [ %97, %96 ], [ 2, %98 ]
  store i32 %100, ptr %1, align 4
  store i32 1, ptr %6, align 4
  br label %101

101:                                              ; preds = %99, %81, %69, %48, %27
  call void @llvm.lifetime.end.p0(i64 8, ptr %5) #9
  call void @llvm.lifetime.end.p0(i64 8, ptr %4) #9
  call void @llvm.lifetime.end.p0(i64 128, ptr %3) #9
  call void @llvm.lifetime.end.p0(i64 4, ptr %2) #9
  %102 = load i32, ptr %1, align 4
  ret i32 %102
}