; Function Attrs: nounwind uwtable
define i32 @get_num_procs() local_unnamed_addr #0 {
  %1 = alloca %struct.cpu_set_t, align 8
  call void @llvm.lifetime.start.p0(i64 128, ptr nonnull %1) #15
  %2 = load i32, ptr @get_num_procs.nums, align 4, !tbaa !3
  %.not = icmp eq i32 %2, 0
  br i1 %.not, label %3, label %6

3:                                                ; preds = %0
  %4 = tail call i64 @sysconf(i32 noundef 83) #15
  %5 = trunc i64 %4 to i32
  store i32 %5, ptr @get_num_procs.nums, align 4, !tbaa !3
  br label %6

6:                                                ; preds = %3, %0
  %7 = phi i32 [ %5, %3 ], [ %2, %0 ]
  %8 = icmp sgt i32 %7, 1023
  br i1 %8, label %9, label %30

9:                                                ; preds = %6
  %10 = zext nneg i32 %7 to i64
  %11 = tail call ptr @__sched_cpualloc(i64 noundef %10) #15
  %12 = icmp eq ptr %11, null
  %13 = load i32, ptr @get_num_procs.nums, align 4, !tbaa !3
  br i1 %12, label %40, label %14

14:                                               ; preds = %9
  %15 = sext i32 %13 to i64
  %16 = add nsw i64 %15, 63
  %17 = lshr i64 %16, 3
  %18 = and i64 %17, 2305843009213693944
  %19 = tail call i32 @sched_getaffinity(i32 noundef 0, i64 noundef %18, ptr noundef nonnull %11) #15
  %.not20 = icmp eq i32 %19, 0
  br i1 %.not20, label %22, label %20

20:                                               ; preds = %14
  tail call void @__sched_cpufree(ptr noundef nonnull %11) #15
  %21 = load i32, ptr @get_num_procs.nums, align 4, !tbaa !3
  br label %40

22:                                               ; preds = %14
  %23 = tail call i32 @__sched_cpucount(i64 noundef %18, ptr noundef nonnull %11) #15
  %24 = icmp sgt i32 %23, 0
  %25 = load i32, ptr @get_num_procs.nums, align 4
  %26 = icmp slt i32 %23, %25
  %or.cond = select i1 %24, i1 %26, i1 false
  br i1 %or.cond, label %27, label %28

27:                                               ; preds = %22
  store i32 %23, ptr @get_num_procs.nums, align 4, !tbaa !3
  br label %28

28:                                               ; preds = %27, %22
  tail call void @__sched_cpufree(ptr noundef nonnull %11) #15
  %29 = load i32, ptr @get_num_procs.nums, align 4, !tbaa !3
  br label %40

30:                                               ; preds = %6
  %31 = call i32 @sched_getaffinity(i32 noundef 0, i64 noundef 128, ptr noundef nonnull %1) #15
  %.not19 = icmp eq i32 %31, 0
  br i1 %.not19, label %34, label %32

32:                                               ; preds = %30
  %33 = load i32, ptr @get_num_procs.nums, align 4, !tbaa !3
  br label %40

34:                                               ; preds = %30
  %35 = call i32 @__sched_cpucount(i64 noundef 128, ptr noundef nonnull %1) #15
  %36 = icmp sgt i32 %35, 0
  %37 = load i32, ptr @get_num_procs.nums, align 4
  %38 = icmp slt i32 %35, %37
  %or.cond23 = select i1 %36, i1 %38, i1 false
  br i1 %or.cond23, label %39, label %40

39:                                               ; preds = %34
  store i32 %35, ptr @get_num_procs.nums, align 4, !tbaa !3
  br label %40

40:                                               ; preds = %34, %39, %9, %32, %28, %20
  %.sink25 = phi i32 [ %33, %32 ], [ %29, %28 ], [ %21, %20 ], [ %13, %9 ], [ %35, %39 ], [ %37, %34 ]
  %41 = icmp sgt i32 %.sink25, 0
  %42 = select i1 %41, i32 %.sink25, i32 2
  call void @llvm.lifetime.end.p0(i64 128, ptr nonnull %1) #15
  ret i32 %42
}